; ModuleID = 'source-C-CXX/35/1320.c'
source_filename = "source-C-CXX/35/1320.c"
target datalayout = "e-m:e-p270:32:32-p271:32:32-p272:64:64-i64:64-f80:128-n8:16:32:64-S128"
target triple = "x86_64-pc-linux-gnu"

@.str = private unnamed_addr constant [6 x i8] c"%s %s\00", align 1
@.str.1 = private unnamed_addr constant [4 x i8] c"YES\00", align 1
@.str.2 = private unnamed_addr constant [3 x i8] c"NO\00", align 1

; Function Attrs: nofree nounwind sspstrong uwtable
define dso_local i32 @main() local_unnamed_addr #0 {
  %1 = alloca [100 x i8], align 16
  %2 = alloca [100 x i8], align 16
  %3 = getelementptr inbounds [100 x i8], [100 x i8]* %1, i64 0, i64 0
  call void @llvm.lifetime.start.p0i8(i64 100, i8* nonnull %3) #5
  %4 = getelementptr inbounds [100 x i8], [100 x i8]* %2, i64 0, i64 0
  call void @llvm.lifetime.start.p0i8(i64 100, i8* nonnull %4) #5
  %5 = call i32 (i8*, ...) @__isoc99_scanf(i8* getelementptr inbounds ([6 x i8], [6 x i8]* @.str, i64 0, i64 0), i8* nonnull %3, i8* nonnull %4)
  %6 = call i64 @strlen(i8* noundef nonnull %3) #6
  %7 = trunc i64 %6 to i32
  %8 = call i64 @strlen(i8* noundef nonnull %4) #6
  %9 = trunc i64 %8 to i32
  %10 = icmp eq i32 %7, %9
  %11 = icmp sgt i32 %7, 0
  %12 = and i1 %10, %11
  br i1 %12, label %13, label %33

13:                                               ; preds = %0
  %14 = and i64 %6, 4294967295
  br label %15

15:                                               ; preds = %13, %30
  %16 = phi i64 [ 0, %13 ], [ %31, %30 ]
  %17 = getelementptr inbounds [100 x i8], [100 x i8]* %1, i64 0, i64 %16
  %18 = load i8, i8* %17, align 1, !tbaa !5
  br label %19

19:                                               ; preds = %15, %24
  %20 = phi i64 [ 0, %15 ], [ %25, %24 ]
  %21 = getelementptr inbounds [100 x i8], [100 x i8]* %2, i64 0, i64 %20
  %22 = load i8, i8* %21, align 1, !tbaa !5
  %23 = icmp eq i8 %18, %22
  br i1 %23, label %27, label %24

24:                                               ; preds = %19
  %25 = add nuw nsw i64 %20, 1
  %26 = icmp eq i64 %25, %14
  br i1 %26, label %30, label %19, !llvm.loop !8

27:                                               ; preds = %19
  %28 = and i64 %20, 4294967295
  %29 = getelementptr inbounds [100 x i8], [100 x i8]* %2, i64 0, i64 %28
  store i8 0, i8* %29, align 1, !tbaa !5
  br label %30

30:                                               ; preds = %24, %27
  %31 = add nuw nsw i64 %16, 1
  %32 = icmp eq i64 %31, %14
  br i1 %32, label %33, label %15, !llvm.loop !10

33:                                               ; preds = %30, %0
  %34 = icmp sgt i32 %9, 0
  br i1 %34, label %35, label %80

35:                                               ; preds = %33
  %36 = and i64 %8, 4294967295
  %37 = icmp ult i64 %36, 8
  br i1 %37, label %63, label %38

38:                                               ; preds = %35
  %39 = and i64 %8, 7
  %40 = sub nsw i64 %36, %39
  br label %41

41:                                               ; preds = %41, %38
  %42 = phi i64 [ 0, %38 ], [ %57, %41 ]
  %43 = phi <4 x i32> [ zeroinitializer, %38 ], [ %55, %41 ]
  %44 = phi <4 x i32> [ zeroinitializer, %38 ], [ %56, %41 ]
  %45 = getelementptr inbounds [100 x i8], [100 x i8]* %2, i64 0, i64 %42
  %46 = bitcast i8* %45 to <4 x i8>*
  %47 = load <4 x i8>, <4 x i8>* %46, align 8, !tbaa !5
  %48 = getelementptr inbounds i8, i8* %45, i64 4
  %49 = bitcast i8* %48 to <4 x i8>*
  %50 = load <4 x i8>, <4 x i8>* %49, align 4, !tbaa !5
  %51 = icmp ne <4 x i8> %47, zeroinitializer
  %52 = icmp ne <4 x i8> %50, zeroinitializer
  %53 = zext <4 x i1> %51 to <4 x i32>
  %54 = zext <4 x i1> %52 to <4 x i32>
  %55 = add <4 x i32> %43, %53
  %56 = add <4 x i32> %44, %54
  %57 = add nuw i64 %42, 8
  %58 = icmp eq i64 %57, %40
  br i1 %58, label %59, label %41, !llvm.loop !11

59:                                               ; preds = %41
  %60 = add <4 x i32> %56, %55
  %61 = call i32 @llvm.vector.reduce.add.v4i32(<4 x i32> %60)
  %62 = icmp eq i64 %39, 0
  br i1 %62, label %76, label %63

63:                                               ; preds = %35, %59
  %64 = phi i64 [ 0, %35 ], [ %40, %59 ]
  %65 = phi i32 [ 0, %35 ], [ %61, %59 ]
  br label %66

66:                                               ; preds = %63, %66
  %67 = phi i64 [ %74, %66 ], [ %64, %63 ]
  %68 = phi i32 [ %73, %66 ], [ %65, %63 ]
  %69 = getelementptr inbounds [100 x i8], [100 x i8]* %2, i64 0, i64 %67
  %70 = load i8, i8* %69, align 1, !tbaa !5
  %71 = icmp ne i8 %70, 0
  %72 = zext i1 %71 to i32
  %73 = add nuw nsw i32 %68, %72
  %74 = add nuw nsw i64 %67, 1
  %75 = icmp eq i64 %74, %36
  br i1 %75, label %76, label %66, !llvm.loop !13

76:                                               ; preds = %66, %59
  %77 = phi i32 [ %61, %59 ], [ %73, %66 ]
  %78 = icmp eq i32 %77, 0
  %79 = select i1 %78, i8* getelementptr inbounds ([4 x i8], [4 x i8]* @.str.1, i64 0, i64 0), i8* getelementptr inbounds ([3 x i8], [3 x i8]* @.str.2, i64 0, i64 0)
  br label %80

80:                                               ; preds = %76, %33
  %81 = phi i8* [ getelementptr inbounds ([4 x i8], [4 x i8]* @.str.1, i64 0, i64 0), %33 ], [ %79, %76 ]
  %82 = call i32 (i8*, ...) @printf(i8* nonnull dereferenceable(1) %81)
  call void @llvm.lifetime.end.p0i8(i64 100, i8* nonnull %4) #5
  call void @llvm.lifetime.end.p0i8(i64 100, i8* nonnull %3) #5
  ret i32 0
}

; Function Attrs: argmemonly mustprogress nofree nosync nounwind willreturn
declare void @llvm.lifetime.start.p0i8(i64 immarg, i8* nocapture) #1

; Function Attrs: nofree nounwind
declare noundef i32 @__isoc99_scanf(i8* nocapture noundef readonly, ...) local_unnamed_addr #2

; Function Attrs: argmemonly mustprogress nofree nounwind readonly willreturn
declare i64 @strlen(i8* nocapture) local_unnamed_addr #3

; Function Attrs: nofree nounwind
declare noundef i32 @printf(i8* nocapture noundef readonly, ...) local_unnamed_addr #2

; Function Attrs: argmemonly mustprogress nofree nosync nounwind willreturn
declare void @llvm.lifetime.end.p0i8(i64 immarg, i8* nocapture) #1

; Function Attrs: nofree nosync nounwind readnone willreturn
declare i32 @llvm.vector.reduce.add.v4i32(<4 x i32>) #4


!llvm.module.flags = !{!0, !1, !2, !3}
!llvm.ident = !{!4}

!0 = !{i32 1, !"wchar_size", i32 4}
!1 = !{i32 7, !"PIC Level", i32 2}
!2 = !{i32 7, !"PIE Level", i32 2}
!3 = !{i32 7, !"uwtable", i32 1}
!4 = !{!"clang version 13.0.0"}
!5 = !{!6, !6, i64 0}
!6 = !{!"omnipotent char", !7, i64 0}
!7 = !{!"Simple C/C++ TBAA"}
!8 = distinct !{!8, !9}
!9 = !{!"llvm.loop.mustprogress"}
!10 = distinct !{!10, !9}
!11 = distinct !{!11, !9, !12}
!12 = !{!"llvm.loop.isvectorized", i32 1}
!13 = distinct !{!13, !9, !14, !12}
!14 = !{!"llvm.loop.unroll.runtime.disable"}
